; Function Attrs: nounwind uwtable
define range(i32 -2147483648, 1) i32 @fdt_pack(ptr noundef %0) local_unnamed_addr #0 {
  %2 = tail call i32 @fdt_ro_probe_(ptr noundef %0) #9
  %3 = icmp sgt i32 %2, -1
  br i1 %3, label %4, label %fdt_rw_probe_.exit.thread

4:                                                ; preds = %1
  %5 = getelementptr inbounds nuw i8, ptr %0, i64 20
  %6 = load i8, ptr %5, align 1, !tbaa !3
  %7 = zext i8 %6 to i32
  %8 = shl nuw i32 %7, 24
  %9 = getelementptr inbounds nuw i8, ptr %0, i64 21
  %10 = load i8, ptr %9, align 1, !tbaa !3
  %11 = zext i8 %10 to i32
  %12 = shl nuw nsw i32 %11, 16
  %13 = or disjoint i32 %12, %8
  %14 = getelementptr inbounds nuw i8, ptr %0, i64 22
  %15 = load i8, ptr %14, align 1, !tbaa !3
  %16 = zext i8 %15 to i32
  %17 = shl nuw nsw i32 %16, 8
  %18 = or disjoint i32 %13, %17
  %19 = getelementptr inbounds nuw i8, ptr %0, i64 23
  %20 = load i8, ptr %19, align 1, !tbaa !3
  %21 = zext i8 %20 to i32
  %22 = or disjoint i32 %18, %21
  %23 = icmp ult i32 %22, 17
  br i1 %23, label %fdt_rw_probe_.exit.thread, label %24

24:                                               ; preds = %4
  %25 = getelementptr inbounds nuw i8, ptr %0, i64 36
  %26 = load i8, ptr %25, align 1, !tbaa !3
  %27 = zext i8 %26 to i32
  %28 = shl nuw i32 %27, 24
  %29 = getelementptr inbounds nuw i8, ptr %0, i64 37
  %30 = load i8, ptr %29, align 1, !tbaa !3
  %31 = zext i8 %30 to i32
  %32 = shl nuw nsw i32 %31, 16
  %33 = or disjoint i32 %32, %28
  %34 = getelementptr inbounds nuw i8, ptr %0, i64 38
  %35 = load i8, ptr %34, align 1, !tbaa !3
  %36 = zext i8 %35 to i32
  %37 = shl nuw nsw i32 %36, 8
  %38 = or disjoint i32 %33, %37
  %39 = getelementptr inbounds nuw i8, ptr %0, i64 39
  %40 = load i8, ptr %39, align 1, !tbaa !3
  %41 = zext i8 %40 to i32
  %42 = or disjoint i32 %38, %41
  %43 = tail call fastcc i32 @fdt_blocks_misordered_(ptr noundef nonnull %0, i32 noundef 16, i32 noundef %42)
  %.not.i = icmp eq i32 %43, 0
  br i1 %.not.i, label %44, label %fdt_rw_probe_.exit.thread

44:                                               ; preds = %24
  %.not9.i = icmp eq i32 %22, 17
  br i1 %.not9.i, label %fdt_rw_probe_.exit, label %45

45:                                               ; preds = %44
  store i32 285212672, ptr %5, align 4, !tbaa !6
  br label %fdt_rw_probe_.exit

fdt_rw_probe_.exit:                               ; preds = %45, %44
  %46 = tail call i32 @fdt_num_mem_rsv(ptr noundef nonnull %0) #9
  %47 = shl i32 %46, 4
  %48 = add i32 %47, 16
  %49 = load i8, ptr %25, align 1, !tbaa !3
  %50 = zext i8 %49 to i32
  %51 = shl nuw i32 %50, 24
  %52 = load i8, ptr %29, align 1, !tbaa !3
  %53 = zext i8 %52 to i32
  %54 = shl nuw nsw i32 %53, 16
  %55 = or disjoint i32 %54, %51
  %56 = load i8, ptr %34, align 1, !tbaa !3
  %57 = zext i8 %56 to i32
  %58 = shl nuw nsw i32 %57, 8
  %59 = or disjoint i32 %55, %58
  %60 = load i8, ptr %39, align 1, !tbaa !3
  %61 = zext i8 %60 to i32
  %62 = or disjoint i32 %59, %61
  %63 = add i32 %47, 56
  %64 = add nsw i32 %62, %63
  %65 = getelementptr inbounds nuw i8, ptr %0, i64 40
  %66 = getelementptr inbounds nuw i8, ptr %0, i64 16
  %67 = load i8, ptr %66, align 1, !tbaa !3
  %68 = zext i8 %67 to i64
  %69 = shl nuw nsw i64 %68, 24
  %70 = getelementptr inbounds nuw i8, ptr %0, i64 17
  %71 = load i8, ptr %70, align 1, !tbaa !3
  %72 = zext i8 %71 to i64
  %73 = shl nuw nsw i64 %72, 16
  %74 = or disjoint i64 %73, %69
  %75 = getelementptr inbounds nuw i8, ptr %0, i64 18
  %76 = load i8, ptr %75, align 1, !tbaa !3
  %77 = zext i8 %76 to i64
  %78 = shl nuw nsw i64 %77, 8
  %79 = or disjoint i64 %74, %78
  %80 = getelementptr inbounds nuw i8, ptr %0, i64 19
  %81 = load i8, ptr %80, align 1, !tbaa !3
  %82 = zext i8 %81 to i64
  %83 = or disjoint i64 %79, %82
  %84 = getelementptr inbounds nuw i8, ptr %0, i64 %83
  %85 = sext i32 %48 to i64
  tail call void @llvm.memmove.p0.p0.i64(ptr nonnull align 1 %65, ptr readonly align 1 %84, i64 %85, i1 false)
  store i32 671088640, ptr %66, align 4, !tbaa !31
  %86 = sext i32 %63 to i64
  %87 = getelementptr inbounds i8, ptr %0, i64 %86
  %88 = getelementptr inbounds nuw i8, ptr %0, i64 8
  %89 = load i8, ptr %88, align 1, !tbaa !3
  %90 = zext i8 %89 to i64
  %91 = shl nuw nsw i64 %90, 24
  %92 = getelementptr inbounds nuw i8, ptr %0, i64 9
  %93 = load i8, ptr %92, align 1, !tbaa !3
  %94 = zext i8 %93 to i64
  %95 = shl nuw nsw i64 %94, 16
  %96 = or disjoint i64 %95, %91
  %97 = getelementptr inbounds nuw i8, ptr %0, i64 10
  %98 = load i8, ptr %97, align 1, !tbaa !3
  %99 = zext i8 %98 to i64
  %100 = shl nuw nsw i64 %99, 8
  %101 = or disjoint i64 %96, %100
  %102 = getelementptr inbounds nuw i8, ptr %0, i64 11
  %103 = load i8, ptr %102, align 1, !tbaa !3
  %104 = zext i8 %103 to i64
  %105 = or disjoint i64 %101, %104
  %106 = getelementptr inbounds nuw i8, ptr %0, i64 %105
  %107 = sext i32 %62 to i64
  tail call void @llvm.memmove.p0.p0.i64(ptr nonnull align 1 %87, ptr readonly align 1 %106, i64 %107, i1 false)
  %rev.i.i.i = tail call noundef i32 @llvm.bswap.i32(i32 %63)
  store i32 %rev.i.i.i, ptr %88, align 4, !tbaa !13
  %rev.i.i28.i = tail call noundef i32 @llvm.bswap.i32(i32 %62)
  store i32 %rev.i.i28.i, ptr %25, align 4, !tbaa !16
  %108 = sext i32 %64 to i64
  %109 = getelementptr inbounds i8, ptr %0, i64 %108
  %110 = getelementptr inbounds nuw i8, ptr %0, i64 12
  %111 = load i8, ptr %110, align 1, !tbaa !3
  %112 = zext i8 %111 to i64
  %113 = shl nuw nsw i64 %112, 24
  %114 = getelementptr inbounds nuw i8, ptr %0, i64 13
  %115 = load i8, ptr %114, align 1, !tbaa !3
  %116 = zext i8 %115 to i64
  %117 = shl nuw nsw i64 %116, 16
  %118 = or disjoint i64 %117, %113
  %119 = getelementptr inbounds nuw i8, ptr %0, i64 14
  %120 = load i8, ptr %119, align 1, !tbaa !3
  %121 = zext i8 %120 to i64
  %122 = shl nuw nsw i64 %121, 8
  %123 = or disjoint i64 %118, %122
  %124 = getelementptr inbounds nuw i8, ptr %0, i64 15
  %125 = load i8, ptr %124, align 1, !tbaa !3
  %126 = zext i8 %125 to i64
  %127 = or disjoint i64 %123, %126
  %128 = getelementptr inbounds nuw i8, ptr %0, i64 %127
  %129 = getelementptr inbounds nuw i8, ptr %0, i64 32
  %130 = load i8, ptr %129, align 1, !tbaa !3
  %131 = zext i8 %130 to i64
  %132 = shl nuw nsw i64 %131, 24
  %133 = getelementptr inbounds nuw i8, ptr %0, i64 33
  %134 = load i8, ptr %133, align 1, !tbaa !3
  %135 = zext i8 %134 to i64
  %136 = shl nuw nsw i64 %135, 16
  %137 = or disjoint i64 %136, %132
  %138 = getelementptr inbounds nuw i8, ptr %0, i64 34
  %139 = load i8, ptr %138, align 1, !tbaa !3
  %140 = zext i8 %139 to i64
  %141 = shl nuw nsw i64 %140, 8
  %142 = or disjoint i64 %137, %141
  %143 = getelementptr inbounds nuw i8, ptr %0, i64 35
  %144 = load i8, ptr %143, align 1, !tbaa !3
  %145 = zext i8 %144 to i64
  %146 = or disjoint i64 %142, %145
  tail call void @llvm.memmove.p0.p0.i64(ptr align 1 %109, ptr readonly align 1 %128, i64 %146, i1 false)
  %rev.i.i29.i = tail call noundef i32 @llvm.bswap.i32(i32 %64)
  store i32 %rev.i.i29.i, ptr %110, align 4, !tbaa !14
  %147 = load i8, ptr %129, align 1, !tbaa !3
  %148 = zext i8 %147 to i32
  %149 = shl nuw i32 %148, 24
  %150 = load i8, ptr %133, align 1, !tbaa !3
  %151 = zext i8 %150 to i32
  %152 = shl nuw nsw i32 %151, 16
  %153 = or disjoint i32 %152, %149
  %154 = load i8, ptr %138, align 1, !tbaa !3
  %155 = zext i8 %154 to i32
  %156 = shl nuw nsw i32 %155, 8
  %157 = or disjoint i32 %153, %156
  %158 = load i8, ptr %143, align 1, !tbaa !3
  %159 = zext i8 %158 to i32
  %160 = or disjoint i32 %157, %159
  %rev.i.i30.i = tail call noundef i32 @llvm.bswap.i32(i32 %160)
  store i32 %rev.i.i30.i, ptr %129, align 4, !tbaa !23
  %161 = shl i32 %rev.i.i29.i, 24
  %162 = shl i32 %rev.i.i29.i, 8
  %163 = and i32 %162, 16711680
  %164 = or disjoint i32 %163, %161
  %165 = lshr i32 %rev.i.i29.i, 8
  %166 = and i32 %165, 65280
  %167 = or disjoint i32 %164, %166
  %168 = lshr i32 %rev.i.i29.i, 24
  %169 = or disjoint i32 %167, %168
  %170 = shl i32 %rev.i.i30.i, 24
  %171 = shl i32 %rev.i.i30.i, 8
  %172 = and i32 %171, 16711680
  %173 = or disjoint i32 %172, %170
  %174 = lshr i32 %rev.i.i30.i, 8
  %175 = and i32 %174, 65280
  %176 = or disjoint i32 %173, %175
  %177 = lshr i32 %rev.i.i30.i, 24
  %178 = or disjoint i32 %176, %177
  %179 = add i32 %178, %169
  %rev.i.i = tail call noundef i32 @llvm.bswap.i32(i32 %179)
  %180 = getelementptr inbounds nuw i8, ptr %0, i64 4
  store i32 %rev.i.i, ptr %180, align 4, !tbaa !33
  br label %fdt_rw_probe_.exit.thread

fdt_rw_probe_.exit.thread:                        ; preds = %24, %4, %1, %fdt_rw_probe_.exit
  %.1 = phi i32 [ 0, %fdt_rw_probe_.exit ], [ -12, %24 ], [ -10, %4 ], [ %2, %1 ]
  ret i32 %.1
}